; Function Attrs: mustprogress uwtable
define dso_local noundef nonnull ptr @_Z10createTilev() #0 personality ptr @__gxx_personality_v0 {
  %1 = tail call noalias noundef nonnull dereferenceable(408) ptr @_Znwm(i64 noundef 408) #20
  invoke void @_ZN15Sample_TileMeshC1Ev(ptr noundef nonnull align 8 dereferenceable(404) %1)
          to label %2 unwind label %3

2:                                                ; preds = %0
  ret ptr %1

3:                                                ; preds = %0
  %4 = landingpad { ptr, i32 }
          cleanup
  tail call void @_ZdlPv(ptr noundef nonnull %1) #21
  resume { ptr, i32 } %4
}